target datalayout = "e-m:e-p270:32:32-p271:32:32-p272:64:64-i64:64-i128:128-f80:128-n8:16:32:64-S128"
target triple = "x86_64-pc-linux-gnu"

%"class.OpenSubdiv::v3_6_0::Far::PatchDescriptor" = type { i32 }
%"struct.OpenSubdiv::v3_6_0::Far::PatchTable::PatchArray" = type { %"class.OpenSubdiv::v3_6_0::Far::PatchDescriptor", i32, i32, i32, i32 }

@.str.1 = private unnamed_addr constant [65 x i8] c"    numPatches=%d vertIndex=%d patchIndex=%d quadOffsetIndex=%d\0A\00", align 1

; Function Attrs: mustprogress uwtable
define void @_ZNK10OpenSubdiv6v3_6_03Far10PatchTable10PatchArray5printEv(ptr noundef nonnull align 4 dereferenceable(20) %0) #4 align 2 {
  %2 = alloca ptr, align 8
  store ptr %0, ptr %2, align 8
  %3 = load ptr, ptr %2, align 8
  %4 = getelementptr inbounds nuw %"struct.OpenSubdiv::v3_6_0::Far::PatchTable::PatchArray", ptr %3, i32 0, i32 0
  call void @_ZNK10OpenSubdiv6v3_6_03Far15PatchDescriptor5printEv(ptr noundef nonnull align 4 dereferenceable(4) %4)
  %5 = getelementptr inbounds nuw %"struct.OpenSubdiv::v3_6_0::Far::PatchTable::PatchArray", ptr %3, i32 0, i32 1
  %6 = load i32, ptr %5, align 4
  %7 = getelementptr inbounds nuw %"struct.OpenSubdiv::v3_6_0::Far::PatchTable::PatchArray", ptr %3, i32 0, i32 2
  %8 = load i32, ptr %7, align 4
  %9 = getelementptr inbounds nuw %"struct.OpenSubdiv::v3_6_0::Far::PatchTable::PatchArray", ptr %3, i32 0, i32 3
  %10 = load i32, ptr %9, align 4
  %11 = getelementptr inbounds nuw %"struct.OpenSubdiv::v3_6_0::Far::PatchTable::PatchArray", ptr %3, i32 0, i32 4
  %12 = load i32, ptr %11, align 4
  %13 = call i32 (ptr, ...) @printf(ptr noundef @.str.1, i32 noundef %6, i32 noundef %8, i32 noundef %10, i32 noundef %12)
  ret void
}