; Function Attrs: mustprogress uwtable
define void @_ZNK10OpenSubdiv6v3_6_03Far10PatchTable10PatchArray5printEv(ptr noundef nonnull align 4 dereferenceable(20) %0) local_unnamed_addr #3 align 2 {
  tail call void @_ZNK10OpenSubdiv6v3_6_03Far15PatchDescriptor5printEv(ptr noundef nonnull align 4 dereferenceable(4) %0)
  %2 = getelementptr inbounds nuw i8, ptr %0, i64 4
  %3 = load i32, ptr %2, align 4
  %4 = getelementptr inbounds nuw i8, ptr %0, i64 8
  %5 = load i32, ptr %4, align 4
  %6 = getelementptr inbounds nuw i8, ptr %0, i64 12
  %7 = load i32, ptr %6, align 4
  %8 = getelementptr inbounds nuw i8, ptr %0, i64 16
  %9 = load i32, ptr %8, align 4
  %10 = tail call i32 (ptr, ...) @printf(ptr noundef nonnull dereferenceable(1) @.str.1, i32 noundef %3, i32 noundef %5, i32 noundef %7, i32 noundef %9)
  ret void
}